target datalayout = "e-m:e-p270:32:32-p271:32:32-p272:64:64-i64:64-i128:128-f80:128-n8:16:32:64-S128"
target triple = "x86_64-pc-linux-gnu"

; Function Attrs: nounwind uwtable
define ptr @Gia_ManGenPerm(i32 noundef %0) #0 {
  %2 = alloca i32, align 4
  %3 = alloca i32, align 4
  %4 = alloca ptr, align 8
  %5 = alloca i32, align 4
  %6 = alloca i32, align 4
  store i32 %0, ptr %2, align 4, !tbaa !8
  call void @llvm.lifetime.start.p0(i64 4, ptr %3) #12
  call void @llvm.lifetime.start.p0(i64 8, ptr %4) #12
  %7 = load i32, ptr %2, align 4, !tbaa !8
  %8 = sext i32 %7 to i64
  %9 = call noalias ptr @calloc(i64 noundef %8, i64 noundef 4) #16
  store ptr %9, ptr %4, align 8, !tbaa !10
  %10 = call i64 @time(ptr noundef null) #12
  %11 = trunc i64 %10 to i32
  call void @srand(i32 noundef %11) #12
  store i32 0, ptr %3, align 4, !tbaa !8
  br label %12

12:                                               ; preds = %22, %1
  %13 = load i32, ptr %3, align 4, !tbaa !8
  %14 = load i32, ptr %2, align 4, !tbaa !8
  %15 = icmp slt i32 %13, %14
  br i1 %15, label %16, label %25

16:                                               ; preds = %12
  %17 = load i32, ptr %3, align 4, !tbaa !8
  %18 = load ptr, ptr %4, align 8, !tbaa !10
  %19 = load i32, ptr %3, align 4, !tbaa !8
  %20 = sext i32 %19 to i64
  %21 = getelementptr inbounds i32, ptr %18, i64 %20
  store i32 %17, ptr %21, align 4, !tbaa !8
  br label %22

22:                                               ; preds = %16
  %23 = load i32, ptr %3, align 4, !tbaa !8
  %24 = add nsw i32 %23, 1
  store i32 %24, ptr %3, align 4, !tbaa !8
  br label %12, !llvm.loop !75

25:                                               ; preds = %12
  store i32 0, ptr %3, align 4, !tbaa !8
  br label %26

26:                                               ; preds = %53, %25
  %27 = load i32, ptr %3, align 4, !tbaa !8
  %28 = load i32, ptr %2, align 4, !tbaa !8
  %29 = icmp slt i32 %27, %28
  br i1 %29, label %30, label %56

30:                                               ; preds = %26
  call void @llvm.lifetime.start.p0(i64 4, ptr %5) #12
  %31 = call i32 @rand() #12
  %32 = load i32, ptr %2, align 4, !tbaa !8
  %33 = srem i32 %31, %32
  store i32 %33, ptr %5, align 4, !tbaa !8
  call void @llvm.lifetime.start.p0(i64 4, ptr %6) #12
  %34 = load ptr, ptr %4, align 8, !tbaa !10
  %35 = load i32, ptr %3, align 4, !tbaa !8
  %36 = sext i32 %35 to i64
  %37 = getelementptr inbounds i32, ptr %34, i64 %36
  %38 = load i32, ptr %37, align 4, !tbaa !8
  store i32 %38, ptr %6, align 4, !tbaa !8
  %39 = load ptr, ptr %4, align 8, !tbaa !10
  %40 = load i32, ptr %5, align 4, !tbaa !8
  %41 = sext i32 %40 to i64
  %42 = getelementptr inbounds i32, ptr %39, i64 %41
  %43 = load i32, ptr %42, align 4, !tbaa !8
  %44 = load ptr, ptr %4, align 8, !tbaa !10
  %45 = load i32, ptr %3, align 4, !tbaa !8
  %46 = sext i32 %45 to i64
  %47 = getelementptr inbounds i32, ptr %44, i64 %46
  store i32 %43, ptr %47, align 4, !tbaa !8
  %48 = load i32, ptr %6, align 4, !tbaa !8
  %49 = load ptr, ptr %4, align 8, !tbaa !10
  %50 = load i32, ptr %5, align 4, !tbaa !8
  %51 = sext i32 %50 to i64
  %52 = getelementptr inbounds i32, ptr %49, i64 %51
  store i32 %48, ptr %52, align 4, !tbaa !8
  call void @llvm.lifetime.end.p0(i64 4, ptr %6) #12
  call void @llvm.lifetime.end.p0(i64 4, ptr %5) #12
  br label %53

53:                                               ; preds = %30
  %54 = load i32, ptr %3, align 4, !tbaa !8
  %55 = add nsw i32 %54, 1
  store i32 %55, ptr %3, align 4, !tbaa !8
  br label %26, !llvm.loop !76

56:                                               ; preds = %26
  %57 = load ptr, ptr %4, align 8, !tbaa !10
  call void @llvm.lifetime.end.p0(i64 8, ptr %4) #12
  call void @llvm.lifetime.end.p0(i64 4, ptr %3) #12
  ret ptr %57
}