; Function Attrs: nounwind uwtable
define noalias noundef ptr @Gia_ManGenPerm(i32 noundef %0) local_unnamed_addr #2 {
  %2 = sext i32 %0 to i64
  %3 = tail call noalias ptr @calloc(i64 noundef %2, i64 noundef 4) #28
  %4 = tail call i64 @time(ptr noundef null) #26
  %5 = trunc i64 %4 to i32
  tail call void @srand(i32 noundef %5) #26
  %6 = icmp sgt i32 %0, 0
  br i1 %6, label %.lr.ph.preheader, label %._crit_edge

.lr.ph.preheader:                                 ; preds = %1
  %wide.trip.count = zext nneg i32 %0 to i64
  br label %.lr.ph

.lr.ph23.preheader:                               ; preds = %.lr.ph
  %wide.trip.count28 = zext nneg i32 %0 to i64
  br label %.lr.ph23

.lr.ph:                                           ; preds = %.lr.ph.preheader, %.lr.ph
  %indvars.iv = phi i64 [ 0, %.lr.ph.preheader ], [ %indvars.iv.next, %.lr.ph ]
  %7 = getelementptr inbounds nuw i32, ptr %3, i64 %indvars.iv
  %8 = trunc nuw nsw i64 %indvars.iv to i32
  store i32 %8, ptr %7, align 4, !tbaa !11
  %indvars.iv.next = add nuw nsw i64 %indvars.iv, 1
  %exitcond.not = icmp eq i64 %indvars.iv.next, %wide.trip.count
  br i1 %exitcond.not, label %.lr.ph23.preheader, label %.lr.ph, !llvm.loop !68

.lr.ph23:                                         ; preds = %.lr.ph23.preheader, %.lr.ph23
  %indvars.iv25 = phi i64 [ 0, %.lr.ph23.preheader ], [ %indvars.iv.next26, %.lr.ph23 ]
  %9 = tail call i32 @rand() #26
  %10 = srem i32 %9, %0
  %11 = getelementptr inbounds nuw i32, ptr %3, i64 %indvars.iv25
  %12 = load i32, ptr %11, align 4, !tbaa !11
  %13 = sext i32 %10 to i64
  %14 = getelementptr inbounds i32, ptr %3, i64 %13
  %15 = load i32, ptr %14, align 4, !tbaa !11
  store i32 %15, ptr %11, align 4, !tbaa !11
  store i32 %12, ptr %14, align 4, !tbaa !11
  %indvars.iv.next26 = add nuw nsw i64 %indvars.iv25, 1
  %exitcond29.not = icmp eq i64 %indvars.iv.next26, %wide.trip.count28
  br i1 %exitcond29.not, label %._crit_edge, label %.lr.ph23, !llvm.loop !69

._crit_edge:                                      ; preds = %.lr.ph23, %1
  ret ptr %3
}